target datalayout = "e-m:e-p270:32:32-p271:32:32-p272:64:64-i64:64-i128:128-f80:128-n8:16:32:64-S128"
target triple = "x86_64-pc-linux-gnu"

@_ZL22_default_java_launcher = internal constant [8 x i8] c"generic\00", align 1
@_ZN9Arguments18_sun_java_launcherE = hidden global ptr @_ZL22_default_java_launcher, align 8

; Function Attrs: mustprogress nounwind uwtable
define hidden void @_ZN9Arguments30process_java_launcher_argumentEPKcPv(ptr noundef %0, ptr noundef %1) #1 align 2 {
  %3 = alloca ptr, align 8
  %4 = alloca ptr, align 8
  store ptr %0, ptr %3, align 8
  store ptr %1, ptr %4, align 8
  %5 = load ptr, ptr @_ZN9Arguments18_sun_java_launcherE, align 8
  %6 = icmp ne ptr %5, @_ZL22_default_java_launcher
  br i1 %6, label %7, label %9

7:                                                ; preds = %2
  %8 = load ptr, ptr @_ZN9Arguments18_sun_java_launcherE, align 8
  call void @_ZN2os4freeEPv(ptr noundef %8)
  br label %9

9:                                                ; preds = %7, %2
  %10 = load ptr, ptr %3, align 8
  %11 = call noundef ptr @_ZN2os16strdup_check_oomEPKc8MEMFLAGS(ptr noundef %10, i8 noundef zeroext 9)
  store ptr %11, ptr @_ZN9Arguments18_sun_java_launcherE, align 8
  ret void
}