; Function Attrs: mustprogress nounwind uwtable
define hidden void @_ZN9Arguments30process_java_launcher_argumentEPKcPv(ptr noundef %0, ptr nocapture noundef readnone %1) local_unnamed_addr #0 align 2 {
  %3 = load ptr, ptr @_ZN9Arguments18_sun_java_launcherE, align 8
  %.not = icmp eq ptr %3, @_ZL22_default_java_launcher
  br i1 %.not, label %5, label %4

4:                                                ; preds = %2
  tail call void @_ZN2os4freeEPv(ptr noundef %3) #31
  br label %5

5:                                                ; preds = %4, %2
  %6 = tail call noundef ptr @_ZN2os16strdup_check_oomEPKc8MEMFLAGS(ptr noundef %0, i8 noundef zeroext 9) #31
  store ptr %6, ptr @_ZN9Arguments18_sun_java_launcherE, align 8
  ret void
}